target datalayout = "e-m:e-p270:32:32-p271:32:32-p272:64:64-i64:64-i128:128-f80:128-n8:16:32:64-S128"
target triple = "x86_64-pc-linux-gnu"

%class.GraphKit = type <{ ptr, %class.Phase, ptr, ptr, ptr, ptr, i32, [4 x i8], ptr, ptr, i32, [4 x i8] }>
%class.Phase = type { i32, ptr }

; Function Attrs: mustprogress nounwind uwtable
define linkonce_odr hidden noundef ptr @_ZNK8GraphKit7zeroconE9BasicType(ptr noundef nonnull align 8 dereferenceable(84) %0, i8 noundef zeroext %1) #1 comdat align 2 {
  %3 = alloca ptr, align 8
  %4 = alloca i8, align 1
  store ptr %0, ptr %3, align 8
  store i8 %1, ptr %4, align 1
  %5 = load ptr, ptr %3, align 8
  %6 = getelementptr inbounds %class.GraphKit, ptr %5, i32 0, i32 3
  %7 = load ptr, ptr %6, align 8
  %8 = load i8, ptr %4, align 1
  %9 = call noundef ptr @_ZN11PhaseValues7zeroconE9BasicType(ptr noundef nonnull align 8 dereferenceable(2400) %7, i8 noundef zeroext %8)
  ret ptr %9
}

; Function Attrs: mustprogress nounwind uwtable
define linkonce_odr hidden noundef ptr @_ZNK8GraphKit4nullEv(ptr noundef nonnull align 8 dereferenceable(84) %0) #1 comdat align 2 {
  %2 = alloca ptr, align 8
  store ptr %0, ptr %2, align 8
  %3 = load ptr, ptr %2, align 8
  %4 = call noundef ptr @_ZNK8GraphKit7zeroconE9BasicType(ptr noundef nonnull align 8 dereferenceable(84) %3, i8 noundef zeroext 12)
  ret ptr %4
}

; Function Attrs: mustprogress nounwind uwtable
define linkonce_odr hidden noundef ptr @_ZNK8GraphKit7makeconEPK4Type(ptr noundef nonnull align 8 dereferenceable(84) %0, ptr noundef %1) #1 comdat align 2 {
  %3 = alloca ptr, align 8
  %4 = alloca ptr, align 8
  store ptr %0, ptr %3, align 8
  store ptr %1, ptr %4, align 8
  %5 = load ptr, ptr %3, align 8
  %6 = getelementptr inbounds %class.GraphKit, ptr %5, i32 0, i32 3
  %7 = load ptr, ptr %6, align 8
  %8 = load ptr, ptr %4, align 8
  %9 = call noundef ptr @_ZN11PhaseValues7makeconEPK4Type(ptr noundef nonnull align 8 dereferenceable(2400) %7, ptr noundef %8)
  ret ptr %9
}

; Function Attrs: mustprogress nounwind uwtable
define hidden noundef ptr @_ZNK21CardTableBarrierSetC218byte_map_base_nodeEP8GraphKit(ptr noundef nonnull align 8 dereferenceable(8) %0, ptr noundef %1) #1 align 2 {
  %3 = alloca ptr, align 8
  %4 = alloca ptr, align 8
  %5 = alloca ptr, align 8
  %6 = alloca ptr, align 8
  store ptr %0, ptr %4, align 8
  store ptr %1, ptr %5, align 8
  %7 = call noundef ptr @_Z21ci_card_table_addressv()
  store ptr %7, ptr %6, align 8
  %8 = load ptr, ptr %6, align 8
  %9 = icmp ne ptr %8, null
  br i1 %9, label %10, label %15

10:                                               ; preds = %2
  %11 = load ptr, ptr %5, align 8
  %12 = load ptr, ptr %6, align 8
  %13 = call noundef ptr @_ZN10TypeRawPtr4makeEPh(ptr noundef %12)
  %14 = call noundef ptr @_ZNK8GraphKit7makeconEPK4Type(ptr noundef nonnull align 8 dereferenceable(84) %11, ptr noundef %13)
  store ptr %14, ptr %3, align 8
  br label %18

15:                                               ; preds = %2
  %16 = load ptr, ptr %5, align 8
  %17 = call noundef ptr @_ZNK8GraphKit4nullEv(ptr noundef nonnull align 8 dereferenceable(84) %16)
  store ptr %17, ptr %3, align 8
  br label %18

18:                                               ; preds = %15, %10
  %19 = load ptr, ptr %3, align 8
  ret ptr %19
}