; Function Attrs: mustprogress nounwind uwtable
define hidden noundef ptr @_ZNK21CardTableBarrierSetC218byte_map_base_nodeEP8GraphKit(ptr nocapture noundef nonnull readnone align 8 dereferenceable(8) %0, ptr nocapture noundef readonly %1) local_unnamed_addr #0 align 2 {
  %3 = tail call noundef ptr @_Z21ci_card_table_addressv() #4
  %.not = icmp eq ptr %3, null
  br i1 %.not, label %9, label %4

4:                                                ; preds = %2
  %5 = tail call noundef ptr @_ZN10TypeRawPtr4makeEPh(ptr noundef nonnull %3) #4
  %6 = getelementptr inbounds i8, ptr %1, i64 32
  %7 = load ptr, ptr %6, align 8
  %8 = tail call noundef ptr @_ZN11PhaseValues7makeconEPK4Type(ptr noundef nonnull align 8 dereferenceable(2400) %7, ptr noundef %5) #4
  br label %13

9:                                                ; preds = %2
  %10 = getelementptr inbounds i8, ptr %1, i64 32
  %11 = load ptr, ptr %10, align 8
  %12 = tail call noundef ptr @_ZN11PhaseValues7zeroconE9BasicType(ptr noundef nonnull align 8 dereferenceable(2400) %11, i8 noundef zeroext 12) #4
  br label %13

13:                                               ; preds = %9, %4
  %.0 = phi ptr [ %8, %4 ], [ %12, %9 ]
  ret ptr %.0
}